; Function Attrs: mustprogress uwtable
define void @_ZN10open_spiel10algorithms18TabularSarsaSolver30SampleUntilNextStateOrTerminalEPNS_5StateE(ptr noundef nonnull align 8 dereferenceable(5136) %0, ptr noundef %1) local_unnamed_addr #3 align 2 personality ptr @__gxx_personality_v0 {
  %3 = alloca %"class.std::vector.15", align 8
  %4 = alloca %"class.absl::debian2::BitGenRef", align 8
  %5 = load ptr, ptr %1, align 8
  %6 = getelementptr inbounds i8, ptr %5, i64 128
  %7 = load ptr, ptr %6, align 8
  %8 = tail call noundef zeroext i1 %7(ptr noundef nonnull align 8 dereferenceable(60) %1)
  br i1 %8, label %.lr.ph, label %.critedge

.lr.ph:                                           ; preds = %2
  %9 = getelementptr inbounds nuw i8, ptr %0, i64 56
  %10 = ptrtoint ptr %9 to i64
  %11 = getelementptr inbounds nuw i8, ptr %4, i64 8
  %12 = getelementptr inbounds nuw i8, ptr %4, i64 16
  %13 = getelementptr inbounds nuw i8, ptr %3, i64 16
  br label %14

14:                                               ; preds = %.lr.ph, %_ZNSt6vectorISt4pairIldESaIS1_EED2Ev.exit
  %15 = load ptr, ptr %1, align 8
  %16 = getelementptr inbounds i8, ptr %15, i64 88
  %17 = load ptr, ptr %16, align 8
  %18 = call noundef zeroext i1 %17(ptr noundef nonnull align 8 dereferenceable(60) %1)
  br i1 %18, label %.critedge, label %19

19:                                               ; preds = %14
  %20 = load ptr, ptr %1, align 8
  %21 = getelementptr inbounds i8, ptr %20, i64 208
  %22 = load ptr, ptr %21, align 8
  call void %22(ptr dead_on_unwind nonnull writable sret(%"class.std::vector.15") align 8 %3, ptr noundef nonnull align 8 dereferenceable(60) %1)
  store i64 %10, ptr %4, align 8
  store ptr @_ZN4absl7debian29BitGenRef8NotAMockEmPKvPvS4_, ptr %11, align 8
  store ptr @_ZN4absl7debian29BitGenRef6ImplFnISt23mersenne_twister_engineImLm32ELm624ELm397ELm31ELm2567483615ELm11ELm4294967295ELm7ELm2636928640ELm15ELm4022730752ELm18ELm1812433253EEEEmm, ptr %12, align 8
  %23 = invoke { i64, double } @_ZN10open_spiel12SampleActionERKSt6vectorISt4pairIldESaIS2_EEN4absl7debian29BitGenRefE(ptr noundef nonnull align 8 dereferenceable(24) %3, ptr noundef nonnull byval(%"class.absl::debian2::BitGenRef") align 8 %4)
          to label %24 unwind label %40

24:                                               ; preds = %19
  %25 = extractvalue { i64, double } %23, 0
  %26 = load ptr, ptr %1, align 8
  %27 = getelementptr inbounds i8, ptr %26, i64 24
  %28 = load ptr, ptr %27, align 8
  invoke void %28(ptr noundef nonnull align 8 dereferenceable(60) %1, i64 noundef %25)
          to label %29 unwind label %40

29:                                               ; preds = %24
  %30 = load ptr, ptr %3, align 8
  %.not.i.i.i = icmp eq ptr %30, null
  br i1 %.not.i.i.i, label %_ZNSt6vectorISt4pairIldESaIS1_EED2Ev.exit, label %31

31:                                               ; preds = %29
  %32 = load ptr, ptr %13, align 8
  %33 = ptrtoint ptr %32 to i64
  %34 = ptrtoint ptr %30 to i64
  %35 = sub i64 %33, %34
  call void @_ZdlPvm(ptr noundef nonnull %30, i64 noundef %35) #19
  br label %_ZNSt6vectorISt4pairIldESaIS1_EED2Ev.exit

_ZNSt6vectorISt4pairIldESaIS1_EED2Ev.exit:        ; preds = %29, %31
  %36 = load ptr, ptr %1, align 8
  %37 = getelementptr inbounds i8, ptr %36, i64 128
  %38 = load ptr, ptr %37, align 8
  %39 = call noundef zeroext i1 %38(ptr noundef nonnull align 8 dereferenceable(60) %1)
  br i1 %39, label %14, label %.critedge, !llvm.loop !13

40:                                               ; preds = %24, %19
  %41 = landingpad { ptr, i32 }
          cleanup
  %42 = load ptr, ptr %3, align 8
  %.not.i.i.i6 = icmp eq ptr %42, null
  br i1 %.not.i.i.i6, label %_ZNSt6vectorISt4pairIldESaIS1_EED2Ev.exit7, label %43

43:                                               ; preds = %40
  %44 = load ptr, ptr %13, align 8
  %45 = ptrtoint ptr %44 to i64
  %46 = ptrtoint ptr %42 to i64
  %47 = sub i64 %45, %46
  call void @_ZdlPvm(ptr noundef nonnull %42, i64 noundef %47) #19
  br label %_ZNSt6vectorISt4pairIldESaIS1_EED2Ev.exit7

_ZNSt6vectorISt4pairIldESaIS1_EED2Ev.exit7:       ; preds = %40, %43
  resume { ptr, i32 } %41

.critedge:                                        ; preds = %14, %_ZNSt6vectorISt4pairIldESaIS1_EED2Ev.exit, %2
  ret void
}